target datalayout = "e-m:e-p270:32:32-p271:32:32-p272:64:64-i64:64-i128:128-f80:128-n8:16:32:64-S128"
target triple = "x86_64-pc-linux-gnu"

@.str = private unnamed_addr constant [118 x i8] c"generated/home/dtcxzyw/WorkSpace/Projects/compilers/llvm-opt-benchmark/bench/libquic/libquic/boringssl/ssl/ssl_asn1.c\00", align 1

; Function Attrs: nounwind uwtable
define internal i32 @add_X509(ptr noundef %0, ptr noundef %1) #0 {
  %3 = alloca i32, align 4
  %4 = alloca ptr, align 8
  %5 = alloca ptr, align 8
  %6 = alloca i32, align 4
  %7 = alloca i32, align 4
  %8 = alloca ptr, align 8
  store ptr %0, ptr %4, align 8, !tbaa !60
  store ptr %1, ptr %5, align 8, !tbaa !56
  call void @llvm.lifetime.start.p0(i64 4, ptr %6) #6
  %9 = load ptr, ptr %5, align 8, !tbaa !56
  %10 = call i32 @i2d_X509(ptr noundef %9, ptr noundef null)
  store i32 %10, ptr %6, align 4, !tbaa !15
  %11 = load i32, ptr %6, align 4, !tbaa !15
  %12 = icmp slt i32 %11, 0
  br i1 %12, label %13, label %14

13:                                               ; preds = %2
  store i32 0, ptr %3, align 4
  store i32 1, ptr %7, align 4
  br label %31

14:                                               ; preds = %2
  call void @llvm.lifetime.start.p0(i64 8, ptr %8) #6
  %15 = load ptr, ptr %4, align 8, !tbaa !60
  %16 = load i32, ptr %6, align 4, !tbaa !15
  %17 = sext i32 %16 to i64
  %18 = call i32 @CBB_add_space(ptr noundef %15, ptr noundef %8, i64 noundef %17)
  %19 = icmp ne i32 %18, 0
  br i1 %19, label %21, label %20

20:                                               ; preds = %14
  call void @ERR_put_error(i32 noundef 16, i32 noundef 0, i32 noundef 65, ptr noundef @.str, i32 noundef 175)
  store i32 0, ptr %3, align 4
  store i32 1, ptr %7, align 4
  br label %30

21:                                               ; preds = %14
  %22 = load ptr, ptr %8, align 8, !tbaa !51
  %23 = icmp ne ptr %22, null
  br i1 %23, label %24, label %29

24:                                               ; preds = %21
  %25 = load ptr, ptr %5, align 8, !tbaa !56
  %26 = call i32 @i2d_X509(ptr noundef %25, ptr noundef %8)
  %27 = icmp slt i32 %26, 0
  br i1 %27, label %28, label %29

28:                                               ; preds = %24
  store i32 0, ptr %3, align 4
  store i32 1, ptr %7, align 4
  br label %30

29:                                               ; preds = %24, %21
  store i32 1, ptr %3, align 4
  store i32 1, ptr %7, align 4
  br label %30

30:                                               ; preds = %29, %28, %20
  call void @llvm.lifetime.end.p0(i64 8, ptr %8) #6
  br label %31

31:                                               ; preds = %30, %13
  call void @llvm.lifetime.end.p0(i64 4, ptr %6) #6
  %32 = load i32, ptr %3, align 4
  ret i32 %32
}