; Function Attrs: nounwind uwtable
define internal fastcc range(i32 0, 2) i32 @add_X509(ptr noundef nonnull %0, ptr noundef %1) unnamed_addr #0 {
  %3 = alloca ptr, align 8
  %4 = tail call i32 @i2d_X509(ptr noundef %1, ptr noundef null) #7
  %5 = icmp slt i32 %4, 0
  br i1 %5, label %17, label %6

6:                                                ; preds = %2
  call void @llvm.lifetime.start.p0(i64 8, ptr nonnull %3) #7
  %7 = zext nneg i32 %4 to i64
  %8 = call i32 @CBB_add_space(ptr noundef nonnull %0, ptr noundef nonnull %3, i64 noundef %7) #7
  %.not = icmp eq i32 %8, 0
  br i1 %.not, label %9, label %10

9:                                                ; preds = %6
  call void @ERR_put_error(i32 noundef 16, i32 noundef 0, i32 noundef 65, ptr noundef nonnull @.str, i32 noundef 175) #7
  br label %16

10:                                               ; preds = %6
  %11 = load ptr, ptr %3, align 8, !tbaa !45
  %.not6 = icmp eq ptr %11, null
  br i1 %.not6, label %15, label %12

12:                                               ; preds = %10
  %13 = call i32 @i2d_X509(ptr noundef %1, ptr noundef nonnull %3) #7
  %14 = icmp slt i32 %13, 0
  br i1 %14, label %16, label %15

15:                                               ; preds = %12, %10
  br label %16

16:                                               ; preds = %12, %15, %9
  %.1 = phi i32 [ 1, %15 ], [ 0, %9 ], [ 0, %12 ]
  call void @llvm.lifetime.end.p0(i64 8, ptr nonnull %3) #7
  br label %17

17:                                               ; preds = %2, %16
  %.0 = phi i32 [ %.1, %16 ], [ 0, %2 ]
  ret i32 %.0
}